target datalayout = "e-m:e-p270:32:32-p271:32:32-p272:64:64-i64:64-i128:128-f80:128-n8:16:32:64-S128"
target triple = "x86_64-pc-linux-gnu"

%class.VM_SafepointALot = type { %class.VM_EmptyOperation }
%class.VM_EmptyOperation = type { %class.VM_Operation }
%class.VM_Operation = type { ptr, ptr }
%class.MutexLockerImpl = type { ptr }
%class.MonitorLocker = type <{ %class.MutexLockerImpl, i32, [4 x i8] }>
%class.ThreadClosure = type { ptr }
%class.MutexUnlocker = type <{ ptr, i8, [7 x i8] }>
%class.HandshakeALotClosure = type { %class.HandshakeClosure }
%class.HandshakeClosure = type { %class.ThreadClosure, ptr }

@_ZL16safepointALot_op = internal global %class.VM_SafepointALot zeroinitializer, align 8
@_ZN8VMThread17_should_terminateE = hidden global i8 0, align 1
@_ZN8VMThread18_next_vm_operationE = hidden global ptr @_ZL5no_op, align 8
@VMOperation_lock = external global ptr, align 8
@HandshakeALot = external global i8, align 1
@SafepointALot = external global i8, align 1
@_ZZN8VMThread27handshake_or_safepoint_alotEvE12last_alot_ms = internal global i64 0, align 8
@GuaranteedSafepointInterval = external global i64, align 8
@_ZTV13ThreadClosure = linkonce_odr hidden unnamed_addr constant { [3 x ptr] } { [3 x ptr] [ptr null, ptr null, ptr @__cxa_pure_virtual] }, comdat, align 8
@SelfDestructTimer = external global double, align 8
@tty = external global ptr, align 8
@.str.32 = private unnamed_addr constant [19 x i8] c"VM self-destructed\00", align 1
@.str.33 = private unnamed_addr constant [14 x i8] c"HandshakeALot\00", align 1

; Function Attrs: mustprogress nounwind uwtable
define linkonce_odr hidden void @_ZN13ThreadClosureC2Ev(ptr noundef nonnull align 8 dereferenceable(8) %0) unnamed_addr #1 comdat align 2 {
  %2 = alloca ptr, align 8
  store ptr %0, ptr %2, align 8
  %3 = load ptr, ptr %2, align 8
  store ptr getelementptr inbounds inrange(-16, 8) ({ [3 x ptr] }, ptr @_ZTV13ThreadClosure, i32 0, i32 0, i32 2), ptr %3, align 8
  ret void
}

; Function Attrs: mustprogress nounwind uwtable
define linkonce_odr hidden void @_ZN15MutexLockerImplD2Ev(ptr noundef nonnull align 8 dereferenceable(8) %0) unnamed_addr #1 comdat align 2 {
  %2 = alloca ptr, align 8
  store ptr %0, ptr %2, align 8
  %3 = load ptr, ptr %2, align 8
  %4 = getelementptr inbounds %class.MutexLockerImpl, ptr %3, i32 0, i32 0
  %5 = load ptr, ptr %4, align 8
  %6 = icmp ne ptr %5, null
  br i1 %6, label %7, label %10

7:                                                ; preds = %1
  %8 = getelementptr inbounds %class.MutexLockerImpl, ptr %3, i32 0, i32 0
  %9 = load ptr, ptr %8, align 8
  call void @_ZN5Mutex6unlockEv(ptr noundef nonnull align 8 dereferenceable(104) %9)
  br label %10

10:                                               ; preds = %7, %1
  ret void
}

; Function Attrs: mustprogress nounwind uwtable
define linkonce_odr hidden void @_ZN16HandshakeClosureD2Ev(ptr noundef nonnull align 8 dereferenceable(16) %0) unnamed_addr #1 comdat align 2 {
  %2 = alloca ptr, align 8
  store ptr %0, ptr %2, align 8
  ret void
}

; Function Attrs: mustprogress nounwind uwtable
define linkonce_odr hidden void @_ZN16HandshakeClosureC2EPKc(ptr noundef nonnull align 8 dereferenceable(16) %0, ptr noundef %1) unnamed_addr #1 comdat align 2 {
  %3 = alloca ptr, align 8
  %4 = alloca ptr, align 8
  store ptr %0, ptr %3, align 8
  store ptr %1, ptr %4, align 8
  %5 = load ptr, ptr %3, align 8
  call void @_ZN13ThreadClosureC2Ev(ptr noundef nonnull align 8 dereferenceable(8) %5) #6
  store ptr getelementptr inbounds inrange(-16, 48) ({ [8 x ptr] }, ptr @_ZTV16HandshakeClosure, i32 0, i32 0, i32 2), ptr %5, align 8
  %6 = getelementptr inbounds %class.HandshakeClosure, ptr %5, i32 0, i32 1
  %7 = load ptr, ptr %4, align 8
  store ptr %7, ptr %6, align 8
  ret void
}

; Function Attrs: mustprogress nounwind uwtable
define linkonce_odr hidden noundef i64 @_Z15nanos_to_millisl(i64 noundef %0) #1 comdat {
  %2 = alloca i64, align 8
  store i64 %0, ptr %2, align 8
  %3 = load i64, ptr %2, align 8
  %4 = sdiv i64 %3, 1000000
  ret i64 %4
}

; Function Attrs: mustprogress nounwind uwtable
define linkonce_odr hidden noundef ptr @_ZNK13MonitorLocker10as_monitorEv(ptr noundef nonnull align 8 dereferenceable(12) %0) #1 comdat align 2 {
  %2 = alloca ptr, align 8
  store ptr %0, ptr %2, align 8
  %3 = load ptr, ptr %2, align 8
  %4 = getelementptr inbounds %class.MutexLockerImpl, ptr %3, i32 0, i32 0
  %5 = load ptr, ptr %4, align 8
  ret ptr %5
}

; Function Attrs: mustprogress nounwind uwtable
define linkonce_odr hidden void @_ZN15MutexLockerImplC2EP5MutexNS0_18SafepointCheckFlagE(ptr noundef nonnull align 8 dereferenceable(8) %0, ptr noundef %1, i32 noundef %2) unnamed_addr #1 comdat align 2 {
  %4 = alloca ptr, align 8
  %5 = alloca ptr, align 8
  %6 = alloca i32, align 4
  %7 = alloca i8, align 1
  store ptr %0, ptr %4, align 8
  store ptr %1, ptr %5, align 8
  store i32 %2, ptr %6, align 4
  %8 = load ptr, ptr %4, align 8
  %9 = getelementptr inbounds %class.MutexLockerImpl, ptr %8, i32 0, i32 0
  %10 = load ptr, ptr %5, align 8
  store ptr %10, ptr %9, align 8
  %11 = load i32, ptr %6, align 4
  %12 = icmp eq i32 %11, 1
  %13 = zext i1 %12 to i8
  store i8 %13, ptr %7, align 1
  %14 = getelementptr inbounds %class.MutexLockerImpl, ptr %8, i32 0, i32 0
  %15 = load ptr, ptr %14, align 8
  %16 = icmp ne ptr %15, null
  br i1 %16, label %17, label %27

17:                                               ; preds = %3
  %18 = load i8, ptr %7, align 1
  %19 = trunc i8 %18 to i1
  br i1 %19, label %20, label %23

20:                                               ; preds = %17
  %21 = getelementptr inbounds %class.MutexLockerImpl, ptr %8, i32 0, i32 0
  %22 = load ptr, ptr %21, align 8
  call void @_ZN5Mutex28lock_without_safepoint_checkEv(ptr noundef nonnull align 8 dereferenceable(104) %22)
  br label %26

23:                                               ; preds = %17
  %24 = getelementptr inbounds %class.MutexLockerImpl, ptr %8, i32 0, i32 0
  %25 = load ptr, ptr %24, align 8
  call void @_ZN5Mutex4lockEv(ptr noundef nonnull align 8 dereferenceable(104) %25)
  br label %26

26:                                               ; preds = %23, %20
  br label %27

27:                                               ; preds = %26, %3
  ret void
}

; Function Attrs: mustprogress nounwind uwtable
define linkonce_odr hidden void @_ZN13MonitorLockerD2Ev(ptr noundef nonnull align 8 dereferenceable(12) %0) unnamed_addr #1 comdat align 2 {
  %2 = alloca ptr, align 8
  store ptr %0, ptr %2, align 8
  %3 = load ptr, ptr %2, align 8
  call void @_ZN15MutexLockerImplD2Ev(ptr noundef nonnull align 8 dereferenceable(8) %3) #6
  ret void
}

; Function Attrs: mustprogress nounwind uwtable
define linkonce_odr hidden noundef zeroext i1 @_ZN13MonitorLocker4waitEl(ptr noundef nonnull align 8 dereferenceable(12) %0, i64 noundef %1) #1 comdat align 2 {
  %3 = alloca ptr, align 8
  %4 = alloca i64, align 8
  store ptr %0, ptr %3, align 8
  store i64 %1, ptr %4, align 8
  %5 = load ptr, ptr %3, align 8
  %6 = getelementptr inbounds %class.MonitorLocker, ptr %5, i32 0, i32 1
  %7 = load i32, ptr %6, align 8
  %8 = icmp eq i32 %7, 0
  br i1 %8, label %9, label %13

9:                                                ; preds = %2
  %10 = call noundef ptr @_ZNK13MonitorLocker10as_monitorEv(ptr noundef nonnull align 8 dereferenceable(12) %5)
  %11 = load i64, ptr %4, align 8
  %12 = call noundef zeroext i1 @_ZN7Monitor4waitEm(ptr noundef nonnull align 8 dereferenceable(104) %10, i64 noundef %11)
  br label %17

13:                                               ; preds = %2
  %14 = call noundef ptr @_ZNK13MonitorLocker10as_monitorEv(ptr noundef nonnull align 8 dereferenceable(12) %5)
  %15 = load i64, ptr %4, align 8
  %16 = call noundef zeroext i1 @_ZN7Monitor28wait_without_safepoint_checkEm(ptr noundef nonnull align 8 dereferenceable(104) %14, i64 noundef %15)
  br label %17

17:                                               ; preds = %13, %9
  %18 = phi i1 [ %12, %9 ], [ %16, %13 ]
  ret i1 %18
}

; Function Attrs: mustprogress nounwind uwtable
define linkonce_odr hidden void @_ZN13MutexUnlockerD2Ev(ptr noundef nonnull align 8 dereferenceable(9) %0) unnamed_addr #1 comdat align 2 {
  %2 = alloca ptr, align 8
  store ptr %0, ptr %2, align 8
  %3 = load ptr, ptr %2, align 8
  %4 = getelementptr inbounds %class.MutexUnlocker, ptr %3, i32 0, i32 1
  %5 = load i8, ptr %4, align 8
  %6 = trunc i8 %5 to i1
  br i1 %6, label %7, label %10

7:                                                ; preds = %1
  %8 = getelementptr inbounds %class.MutexUnlocker, ptr %3, i32 0, i32 0
  %9 = load ptr, ptr %8, align 8
  call void @_ZN5Mutex28lock_without_safepoint_checkEv(ptr noundef nonnull align 8 dereferenceable(104) %9)
  br label %13

10:                                               ; preds = %1
  %11 = getelementptr inbounds %class.MutexUnlocker, ptr %3, i32 0, i32 0
  %12 = load ptr, ptr %11, align 8
  call void @_ZN5Mutex4lockEv(ptr noundef nonnull align 8 dereferenceable(104) %12)
  br label %13

13:                                               ; preds = %10, %7
  ret void
}

; Function Attrs: mustprogress nounwind uwtable
define linkonce_odr hidden void @_ZN20HandshakeALotClosureD2Ev(ptr noundef nonnull align 8 dereferenceable(16) %0) unnamed_addr #1 comdat align 2 {
  %2 = alloca ptr, align 8
  store ptr %0, ptr %2, align 8
  %3 = load ptr, ptr %2, align 8
  call void @_ZN16HandshakeClosureD2Ev(ptr noundef nonnull align 8 dereferenceable(16) %3) #6
  ret void
}

; Function Attrs: mustprogress nounwind uwtable
define linkonce_odr hidden void @_ZN20HandshakeALotClosureC2Ev(ptr noundef nonnull align 8 dereferenceable(16) %0) unnamed_addr #1 comdat align 2 {
  %2 = alloca ptr, align 8
  store ptr %0, ptr %2, align 8
  %3 = load ptr, ptr %2, align 8
  call void @_ZN16HandshakeClosureC2EPKc(ptr noundef nonnull align 8 dereferenceable(16) %3, ptr noundef @.str.33)
  store ptr getelementptr inbounds inrange(-16, 48) ({ [8 x ptr] }, ptr @_ZTV20HandshakeALotClosure, i32 0, i32 0, i32 2), ptr %3, align 8
  ret void
}

; Function Attrs: mustprogress nounwind uwtable
define linkonce_odr hidden void @_ZN13MutexUnlockerC2EP5MutexNS0_18SafepointCheckFlagE(ptr noundef nonnull align 8 dereferenceable(9) %0, ptr noundef %1, i32 noundef %2) unnamed_addr #1 comdat align 2 {
  %4 = alloca ptr, align 8
  %5 = alloca ptr, align 8
  %6 = alloca i32, align 4
  store ptr %0, ptr %4, align 8
  store ptr %1, ptr %5, align 8
  store i32 %2, ptr %6, align 4
  %7 = load ptr, ptr %4, align 8
  %8 = getelementptr inbounds %class.MutexUnlocker, ptr %7, i32 0, i32 0
  %9 = load ptr, ptr %5, align 8
  store ptr %9, ptr %8, align 8
  %10 = getelementptr inbounds %class.MutexUnlocker, ptr %7, i32 0, i32 1
  %11 = load i32, ptr %6, align 4
  %12 = icmp eq i32 %11, 1
  %13 = zext i1 %12 to i8
  store i8 %13, ptr %10, align 8
  %14 = getelementptr inbounds %class.MutexUnlocker, ptr %7, i32 0, i32 0
  %15 = load ptr, ptr %14, align 8
  call void @_ZN5Mutex6unlockEv(ptr noundef nonnull align 8 dereferenceable(104) %15)
  ret void
}

; Function Attrs: mustprogress nounwind uwtable
define hidden noundef zeroext i1 @_ZN8VMThread27handshake_or_safepoint_alotEv() #1 align 2 {
  %1 = alloca i1, align 1
  %2 = alloca i64, align 8
  %3 = alloca i64, align 8
  %4 = alloca i64, align 8
  %5 = load i8, ptr @HandshakeALot, align 1
  %6 = trunc i8 %5 to i1
  br i1 %6, label %11, label %7

7:                                                ; preds = %0
  %8 = load i8, ptr @SafepointALot, align 1
  %9 = trunc i8 %8 to i1
  br i1 %9, label %11, label %10

10:                                               ; preds = %7
  store i1 false, ptr %1, align 1
  br label %30

11:                                               ; preds = %7, %0
  %12 = call noundef i64 @_ZN2os13javaTimeNanosEv()
  %13 = call noundef i64 @_Z15nanos_to_millisl(i64 noundef %12)
  store i64 %13, ptr %2, align 8
  %14 = load i64, ptr @GuaranteedSafepointInterval, align 8
  %15 = icmp ne i64 %14, 0
  br i1 %15, label %16, label %18

16:                                               ; preds = %11
  %17 = load i64, ptr @GuaranteedSafepointInterval, align 8
  br label %19

18:                                               ; preds = %11
  br label %19

19:                                               ; preds = %18, %16
  %20 = phi i64 [ %17, %16 ], [ 1000, %18 ]
  store i64 %20, ptr %3, align 8
  %21 = load i64, ptr %3, align 8
  %22 = load i64, ptr @_ZZN8VMThread27handshake_or_safepoint_alotEvE12last_alot_ms, align 8
  %23 = add nsw i64 %21, %22
  store i64 %23, ptr %4, align 8
  %24 = load i64, ptr %2, align 8
  %25 = load i64, ptr %4, align 8
  %26 = icmp sgt i64 %24, %25
  br i1 %26, label %27, label %29

27:                                               ; preds = %19
  %28 = load i64, ptr %2, align 8
  store i64 %28, ptr @_ZZN8VMThread27handshake_or_safepoint_alotEvE12last_alot_ms, align 8
  store i1 true, ptr %1, align 1
  br label %30

29:                                               ; preds = %19
  store i1 false, ptr %1, align 1
  br label %30

30:                                               ; preds = %29, %27, %10
  %31 = load i1, ptr %1, align 1
  ret i1 %31
}

; Function Attrs: mustprogress nounwind uwtable
define internal void @_ZL23self_destruct_if_neededv() #1 {
  %1 = load double, ptr @SelfDestructTimer, align 8
  %2 = fcmp une double %1, 0.000000e+00
  br i1 %2, label %3, label %12

3:                                                ; preds = %0
  %4 = call noundef zeroext i1 @_ZN7VMError17is_error_reportedEv()
  br i1 %4, label %12, label %5

5:                                                ; preds = %3
  %6 = call noundef double @_ZN2os11elapsedTimeEv()
  %7 = load double, ptr @SelfDestructTimer, align 8
  %8 = fmul double %7, 6.000000e+01
  %9 = fcmp ogt double %6, %8
  br i1 %9, label %10, label %12

10:                                               ; preds = %5
  %11 = load ptr, ptr @tty, align 8
  call void (ptr, ptr, ...) @_ZN12outputStream8print_crEPKcz(ptr noundef nonnull align 8 dereferenceable(56) %11, ptr noundef @.str.32)
  call void @_ZN2os4exitEi(i32 noundef -1) #11
  unreachable

12:                                               ; preds = %5, %3, %0
  ret void
}

; Function Attrs: mustprogress nounwind uwtable
define linkonce_odr hidden noundef zeroext i1 @_ZN8VMThread16should_terminateEv() #1 comdat align 2 {
  %1 = load i8, ptr @_ZN8VMThread17_should_terminateE, align 1
  %2 = trunc i8 %1 to i1
  ret i1 %2
}

; Function Attrs: mustprogress nounwind uwtable
define linkonce_odr hidden void @_ZN13MonitorLocker10notify_allEv(ptr noundef nonnull align 8 dereferenceable(12) %0) #1 comdat align 2 {
  %2 = alloca ptr, align 8
  store ptr %0, ptr %2, align 8
  %3 = load ptr, ptr %2, align 8
  %4 = call noundef ptr @_ZNK13MonitorLocker10as_monitorEv(ptr noundef nonnull align 8 dereferenceable(12) %3)
  call void @_ZN7Monitor10notify_allEv(ptr noundef nonnull align 8 dereferenceable(104) %4)
  ret void
}

; Function Attrs: mustprogress nounwind uwtable
define linkonce_odr hidden void @_ZN13MonitorLockerC2EP7MonitorN5Mutex18SafepointCheckFlagE(ptr noundef nonnull align 8 dereferenceable(12) %0, ptr noundef %1, i32 noundef %2) unnamed_addr #1 comdat align 2 {
  %4 = alloca ptr, align 8
  %5 = alloca ptr, align 8
  %6 = alloca i32, align 4
  store ptr %0, ptr %4, align 8
  store ptr %1, ptr %5, align 8
  store i32 %2, ptr %6, align 4
  %7 = load ptr, ptr %4, align 8
  %8 = load ptr, ptr %5, align 8
  %9 = load i32, ptr %6, align 4
  call void @_ZN15MutexLockerImplC2EP5MutexNS0_18SafepointCheckFlagE(ptr noundef nonnull align 8 dereferenceable(8) %7, ptr noundef %8, i32 noundef %9)
  %10 = getelementptr inbounds %class.MonitorLocker, ptr %7, i32 0, i32 1
  %11 = load i32, ptr %6, align 4
  store i32 %11, ptr %10, align 8
  ret void
}

; Function Attrs: mustprogress nounwind uwtable
define hidden void @_ZN8VMThread18wait_for_operationEv(ptr noundef nonnull align 8 dereferenceable(917) %0) #1 align 2 {
  %2 = alloca ptr, align 8
  %3 = alloca %class.MonitorLocker, align 8
  %4 = alloca i32, align 4
  %5 = alloca %class.MutexUnlocker, align 8
  %6 = alloca %class.HandshakeALotClosure, align 8
  store ptr %0, ptr %2, align 8
  %7 = load ptr, ptr @VMOperation_lock, align 8
  call void @_ZN13MonitorLockerC2EP7MonitorN5Mutex18SafepointCheckFlagE(ptr noundef nonnull align 8 dereferenceable(12) %3, ptr noundef %7, i32 noundef 1)
  store ptr null, ptr @_ZN8VMThread18_next_vm_operationE, align 8
  call void @_ZN13MonitorLocker10notify_allEv(ptr noundef nonnull align 8 dereferenceable(12) %3)
  br label %8

8:                                                ; preds = %31, %1
  %9 = call noundef zeroext i1 @_ZN8VMThread16should_terminateEv()
  %10 = xor i1 %9, true
  br i1 %10, label %11, label %34

11:                                               ; preds = %8
  call void @_ZL23self_destruct_if_neededv()
  %12 = load ptr, ptr @_ZN8VMThread18_next_vm_operationE, align 8
  %13 = icmp ne ptr %12, null
  br i1 %13, label %14, label %15

14:                                               ; preds = %11
  store i32 1, ptr %4, align 4
  br label %35

15:                                               ; preds = %11
  %16 = call noundef zeroext i1 @_ZN8VMThread27handshake_or_safepoint_alotEv()
  br i1 %16, label %17, label %31

17:                                               ; preds = %15
  %18 = load i8, ptr @HandshakeALot, align 1
  %19 = trunc i8 %18 to i1
  br i1 %19, label %20, label %22

20:                                               ; preds = %17
  %21 = load ptr, ptr @VMOperation_lock, align 8
  call void @_ZN13MutexUnlockerC2EP5MutexNS0_18SafepointCheckFlagE(ptr noundef nonnull align 8 dereferenceable(9) %5, ptr noundef %21, i32 noundef 0)
  call void @_ZN20HandshakeALotClosureC2Ev(ptr noundef nonnull align 8 dereferenceable(16) %6)
  call void @_ZN9Handshake7executeEP16HandshakeClosure(ptr noundef %6)
  call void @_ZN20HandshakeALotClosureD2Ev(ptr noundef nonnull align 8 dereferenceable(16) %6) #6
  call void @_ZN13MutexUnlockerD2Ev(ptr noundef nonnull align 8 dereferenceable(9) %5) #6
  br label %22

22:                                               ; preds = %20, %17
  %23 = load ptr, ptr @_ZN8VMThread18_next_vm_operationE, align 8
  %24 = icmp ne ptr %23, null
  br i1 %24, label %25, label %26

25:                                               ; preds = %22
  store i32 1, ptr %4, align 4
  br label %35

26:                                               ; preds = %22
  %27 = load i8, ptr @SafepointALot, align 1
  %28 = trunc i8 %27 to i1
  br i1 %28, label %29, label %30

29:                                               ; preds = %26
  store ptr @_ZL16safepointALot_op, ptr @_ZN8VMThread18_next_vm_operationE, align 8
  store i32 1, ptr %4, align 4
  br label %35

30:                                               ; preds = %26
  br label %31

31:                                               ; preds = %30, %15
  call void @_ZN13MonitorLocker10notify_allEv(ptr noundef nonnull align 8 dereferenceable(12) %3)
  %32 = load i64, ptr @GuaranteedSafepointInterval, align 8
  %33 = call noundef zeroext i1 @_ZN13MonitorLocker4waitEl(ptr noundef nonnull align 8 dereferenceable(12) %3, i64 noundef %32)
  br label %8, !llvm.loop !17

34:                                               ; preds = %8
  store i32 0, ptr %4, align 4
  br label %35

35:                                               ; preds = %34, %29, %25, %14
  call void @_ZN13MonitorLockerD2Ev(ptr noundef nonnull align 8 dereferenceable(12) %3) #6
  %36 = load i32, ptr %4, align 4
  switch i32 %36, label %38 [
    i32 0, label %37
    i32 1, label %37
  ]

37:                                               ; preds = %35, %35
  ret void

38:                                               ; preds = %35
  unreachable
}