; Function Attrs: mustprogress nounwind uwtable
define hidden void @_ZN8VMThread18wait_for_operationEv(ptr nocapture nonnull readnone align 8 %0) local_unnamed_addr #0 align 2 {
  %2 = alloca %class.HandshakeALotClosure, align 8
  %3 = load ptr, ptr @VMOperation_lock, align 8
  %.not.i.i = icmp eq ptr %3, null
  br i1 %.not.i.i, label %_ZN13MonitorLockerC2EP7MonitorN5Mutex18SafepointCheckFlagE.exit, label %4

4:                                                ; preds = %1
  tail call void @_ZN5Mutex28lock_without_safepoint_checkEv(ptr noundef nonnull align 8 dereferenceable(104) %3) #13
  br label %_ZN13MonitorLockerC2EP7MonitorN5Mutex18SafepointCheckFlagE.exit

_ZN13MonitorLockerC2EP7MonitorN5Mutex18SafepointCheckFlagE.exit: ; preds = %1, %4
  store ptr null, ptr @_ZN8VMThread18_next_vm_operationE, align 8
  tail call void @_ZN7Monitor10notify_allEv(ptr noundef nonnull align 8 dereferenceable(104) %3) #13
  %5 = load i8, ptr @_ZN8VMThread17_should_terminateE, align 1
  %6 = trunc i8 %5 to i1
  br i1 %6, label %_ZN13MonitorLockerD2Ev.exit, label %.lr.ph

.lr.ph:                                           ; preds = %_ZN13MonitorLockerC2EP7MonitorN5Mutex18SafepointCheckFlagE.exit
  %7 = getelementptr inbounds i8, ptr %2, i64 8
  br label %8

8:                                                ; preds = %.lr.ph, %_ZN13MonitorLocker4waitEl.exit
  %9 = load double, ptr @SelfDestructTimer, align 8
  %10 = fcmp une double %9, 0.000000e+00
  br i1 %10, label %11, label %_ZL23self_destruct_if_neededv.exit

11:                                               ; preds = %8
  %12 = call noundef zeroext i1 @_ZN7VMError17is_error_reportedEv() #13
  br i1 %12, label %_ZL23self_destruct_if_neededv.exit, label %13

13:                                               ; preds = %11
  %14 = call noundef double @_ZN2os11elapsedTimeEv() #13
  %15 = load double, ptr @SelfDestructTimer, align 8
  %16 = fmul double %15, 6.000000e+01
  %17 = fcmp ogt double %14, %16
  br i1 %17, label %18, label %_ZL23self_destruct_if_neededv.exit

18:                                               ; preds = %13
  %19 = load ptr, ptr @tty, align 8
  call void (ptr, ptr, ...) @_ZN12outputStream8print_crEPKcz(ptr noundef nonnull align 8 dereferenceable(56) %19, ptr noundef nonnull @.str.32) #13
  call void @_ZN2os4exitEi(i32 noundef -1) #14
  unreachable

_ZL23self_destruct_if_neededv.exit:               ; preds = %8, %11, %13
  %20 = load ptr, ptr @_ZN8VMThread18_next_vm_operationE, align 8
  %.not = icmp eq ptr %20, null
  br i1 %.not, label %21, label %_ZN13MonitorLockerD2Ev.exit

21:                                               ; preds = %_ZL23self_destruct_if_neededv.exit
  %22 = load i8, ptr @HandshakeALot, align 1
  %23 = trunc i8 %22 to i1
  br i1 %23, label %27, label %24

24:                                               ; preds = %21
  %25 = load i8, ptr @SafepointALot, align 1
  %26 = trunc i8 %25 to i1
  br i1 %26, label %27, label %_ZN13MonitorLocker4waitEl.exit

27:                                               ; preds = %24, %21
  %28 = call noundef i64 @_ZN2os13javaTimeNanosEv() #13
  %29 = sdiv i64 %28, 1000000
  %30 = load i64, ptr @GuaranteedSafepointInterval, align 8
  %.not.i = icmp eq i64 %30, 0
  %31 = select i1 %.not.i, i64 1000, i64 %30
  %32 = load i64, ptr @_ZZN8VMThread27handshake_or_safepoint_alotEvE12last_alot_ms, align 8
  %33 = add nsw i64 %31, %32
  %34 = icmp sgt i64 %29, %33
  br i1 %34, label %35, label %_ZN13MonitorLocker4waitEl.exit

35:                                               ; preds = %27
  store i64 %29, ptr @_ZZN8VMThread27handshake_or_safepoint_alotEvE12last_alot_ms, align 8
  %36 = load i8, ptr @HandshakeALot, align 1
  %37 = trunc i8 %36 to i1
  br i1 %37, label %_ZN13MutexUnlockerD2Ev.exit, label %39

_ZN13MutexUnlockerD2Ev.exit:                      ; preds = %35
  %38 = load ptr, ptr @VMOperation_lock, align 8
  call void @_ZN5Mutex6unlockEv(ptr noundef nonnull align 8 dereferenceable(104) %38) #13
  store ptr @.str.33, ptr %7, align 8
  store ptr getelementptr inbounds inrange(-16, 48) (i8, ptr @_ZTV20HandshakeALotClosure, i64 16), ptr %2, align 8
  call void @_ZN9Handshake7executeEP16HandshakeClosure(ptr noundef nonnull %2) #13
  call void @_ZN5Mutex4lockEv(ptr noundef nonnull align 8 dereferenceable(104) %38) #13
  br label %39

39:                                               ; preds = %_ZN13MutexUnlockerD2Ev.exit, %35
  %40 = load ptr, ptr @_ZN8VMThread18_next_vm_operationE, align 8
  %.not1 = icmp eq ptr %40, null
  br i1 %.not1, label %41, label %_ZN13MonitorLockerD2Ev.exit

41:                                               ; preds = %39
  %42 = load i8, ptr @SafepointALot, align 1
  %43 = trunc i8 %42 to i1
  br i1 %43, label %44, label %_ZN13MonitorLocker4waitEl.exit

44:                                               ; preds = %41
  store ptr @_ZL16safepointALot_op, ptr @_ZN8VMThread18_next_vm_operationE, align 8
  br label %_ZN13MonitorLockerD2Ev.exit

_ZN13MonitorLocker4waitEl.exit:                   ; preds = %27, %24, %41
  call void @_ZN7Monitor10notify_allEv(ptr noundef nonnull align 8 dereferenceable(104) %3) #13
  %45 = load i64, ptr @GuaranteedSafepointInterval, align 8
  %46 = call noundef zeroext i1 @_ZN7Monitor28wait_without_safepoint_checkEm(ptr noundef nonnull align 8 dereferenceable(104) %3, i64 noundef %45) #13
  %47 = load i8, ptr @_ZN8VMThread17_should_terminateE, align 1
  %48 = trunc i8 %47 to i1
  br i1 %48, label %_ZN13MonitorLockerD2Ev.exit, label %8, !llvm.loop !19

_ZN13MonitorLockerD2Ev.exit:                      ; preds = %_ZL23self_destruct_if_neededv.exit, %39, %_ZN13MonitorLocker4waitEl.exit, %_ZN13MonitorLockerC2EP7MonitorN5Mutex18SafepointCheckFlagE.exit, %44
  call void @_ZN5Mutex6unlockEv(ptr noundef nonnull align 8 dereferenceable(104) %3) #13
  ret void
}